; Function Attrs: mustprogress uwtable
define hidden noundef zeroext i1 @_ZN3sls9bv_plugin6is_satEv(ptr noundef nonnull align 8 dereferenceable(1049) %0) unnamed_addr #3 align 2 {
  %2 = getelementptr inbounds nuw i8, ptr %0, i64 8
  %3 = load ptr, ptr %2, align 8, !tbaa !109
  %4 = tail call noundef nonnull align 8 dereferenceable(8) ptr @_ZN3sls7context8subtermsEv(ptr noundef nonnull align 8 dereferenceable(321) %3)
  %5 = load ptr, ptr %4, align 8, !tbaa !91
  %6 = icmp eq ptr %5, null
  br i1 %6, label %._crit_edge, label %_ZNK6vectorIP4exprLb0EjE3endEv.exit

_ZNK6vectorIP4exprLb0EjE3endEv.exit:              ; preds = %1
  %7 = getelementptr inbounds i8, ptr %5, i64 -4
  %8 = load i32, ptr %7, align 4, !tbaa !83
  %9 = zext i32 %8 to i64
  %10 = getelementptr inbounds nuw ptr, ptr %5, i64 %9
  %.not13 = icmp eq i32 %8, 0
  br i1 %.not13, label %._crit_edge, label %.lr.ph

.lr.ph:                                           ; preds = %_ZNK6vectorIP4exprLb0EjE3endEv.exit
  %11 = getelementptr inbounds nuw i8, ptr %0, i64 32
  %12 = getelementptr inbounds nuw i8, ptr %0, i64 120
  br label %13

._crit_edge:                                      ; preds = %37, %1, %_ZNK6vectorIP4exprLb0EjE3endEv.exit
  %.0.lcssa = phi i1 [ true, %_ZNK6vectorIP4exprLb0EjE3endEv.exit ], [ true, %1 ], [ %.1, %37 ]
  ret i1 %.0.lcssa

13:                                               ; preds = %.lr.ph, %37
  %.015 = phi i1 [ true, %.lr.ph ], [ %.1, %37 ]
  %.01214 = phi ptr [ %5, %.lr.ph ], [ %38, %37 ]
  %14 = load ptr, ptr %.01214, align 8, !tbaa !94
  %15 = getelementptr inbounds nuw i8, ptr %14, i64 4
  %16 = load i32, ptr %15, align 4
  %17 = and i32 %16, 65535
  %18 = icmp eq i32 %17, 0
  br i1 %18, label %19, label %37

19:                                               ; preds = %13
  %20 = tail call noundef ptr @_ZNK4expr8get_sortEv(ptr noundef nonnull align 4 dereferenceable(16) %14)
  %21 = tail call noundef zeroext i1 @_ZNK14bv_recognizers10is_bv_sortEPK4sort(ptr noundef nonnull align 4 dereferenceable(4) %11, ptr noundef %20)
  br i1 %21, label %22, label %37

22:                                               ; preds = %19
  %23 = getelementptr inbounds nuw i8, ptr %14, i64 16
  %24 = load ptr, ptr %23, align 8, !tbaa !133
  %25 = getelementptr inbounds nuw i8, ptr %24, i64 24
  %26 = load ptr, ptr %25, align 8, !tbaa !138
  %27 = icmp eq ptr %26, null
  br i1 %27, label %_ZNK3app13get_family_idEv.exit, label %28

28:                                               ; preds = %22
  %29 = load i32, ptr %26, align 8, !tbaa !142
  br label %_ZNK3app13get_family_idEv.exit

_ZNK3app13get_family_idEv.exit:                   ; preds = %22, %28
  %30 = phi i32 [ %29, %28 ], [ -1, %22 ]
  %31 = load i32, ptr %11, align 8, !tbaa !79
  %32 = icmp eq i32 %30, %31
  br i1 %32, label %33, label %37

33:                                               ; preds = %_ZNK3app13get_family_idEv.exit
  %34 = tail call noundef zeroext i1 @_ZN3sls7bv_eval15eval_is_correctEP3app(ptr noundef nonnull align 8 dereferenceable(865) %12, ptr noundef nonnull %14)
  br i1 %34, label %37, label %35

35:                                               ; preds = %33
  %36 = load ptr, ptr %2, align 8, !tbaa !109
  tail call void @_ZN3sls7context12new_value_ehEP4expr(ptr noundef nonnull align 8 dereferenceable(321) %36, ptr noundef nonnull %14)
  br label %37

37:                                               ; preds = %35, %33, %_ZNK3app13get_family_idEv.exit, %19, %13
  %.1 = phi i1 [ %.015, %33 ], [ false, %35 ], [ %.015, %_ZNK3app13get_family_idEv.exit ], [ %.015, %19 ], [ %.015, %13 ]
  %38 = getelementptr inbounds nuw i8, ptr %.01214, i64 8
  %.not = icmp eq ptr %38, %10
  br i1 %.not, label %._crit_edge, label %13
}